; Function Attrs: mustprogress nounwind uwtable
define internal void @_ZL29llama_sampler_penalties_resetP13llama_sampler(ptr noundef readonly captures(none) %0) #19 personality ptr @__gxx_personality_v0 {
  %2 = getelementptr inbounds nuw i8, ptr %0, i64 8
  %3 = load ptr, ptr %2, align 8, !tbaa !9
  %4 = getelementptr inbounds nuw i8, ptr %3, i64 24
  tail call void @llvm.memset.p0.i64(ptr noundef nonnull align 8 dereferenceable(24) %4, i8 0, i64 24, i1 false)
  %5 = getelementptr inbounds nuw i8, ptr %3, i64 88
  %6 = load ptr, ptr %5, align 8, !tbaa !168
  %.not5.i.i.i = icmp eq ptr %6, null
  br i1 %.not5.i.i.i, label %_ZNSt13unordered_mapIiiSt4hashIiESt8equal_toIiESaISt4pairIKiiEEE5clearEv.exit, label %.lr.ph.i.i.i

.lr.ph.i.i.i:                                     ; preds = %1, %.lr.ph.i.i.i
  %.06.i.i.i = phi ptr [ %7, %.lr.ph.i.i.i ], [ %6, %1 ]
  %7 = load ptr, ptr %.06.i.i.i, align 8, !tbaa !135
  tail call void @_ZdlPvm(ptr noundef nonnull %.06.i.i.i, i64 noundef 16) #32
  %.not.i.i.i = icmp eq ptr %7, null
  br i1 %.not.i.i.i, label %_ZNSt13unordered_mapIiiSt4hashIiESt8equal_toIiESaISt4pairIKiiEEE5clearEv.exit, label %.lr.ph.i.i.i, !llvm.loop !169

_ZNSt13unordered_mapIiiSt4hashIiESt8equal_toIiESaISt4pairIKiiEEE5clearEv.exit: ; preds = %.lr.ph.i.i.i, %1
  %8 = getelementptr inbounds nuw i8, ptr %3, i64 72
  %9 = load ptr, ptr %8, align 8, !tbaa !122
  %10 = getelementptr inbounds nuw i8, ptr %3, i64 80
  %11 = load i64, ptr %10, align 8, !tbaa !123
  %12 = shl i64 %11, 3
  tail call void @llvm.memset.p0.i64(ptr align 8 %9, i8 0, i64 %12, i1 false)
  tail call void @llvm.memset.p0.i64(ptr noundef nonnull align 8 dereferenceable(16) %5, i8 0, i64 16, i1 false)
  ret void
}